target datalayout = "e-m:e-p270:32:32-p271:32:32-p272:64:64-i64:64-i128:128-f80:128-n8:16:32:64-S128"
target triple = "x86_64-pc-linux-gnu"

%struct.expert_field = type { i32, i32 }

@hf_ldp_tlv_upstr_lbl_req_resvbit = internal global i32 0, align 4
@hf_ldp_tlv_inv_length = internal global i32 0, align 4
@ei_ldp_inv_length = internal global %struct.expert_field zeroinitializer, align 4

; Function Attrs: null_pointer_is_valid sspstrong uwtable
define internal void @dissect_tlv_upstrm_ass_lbl_req(ptr noundef %0, ptr noundef %1, i32 noundef %2, ptr noundef %3, i32 noundef %4) #0 {
  %6 = alloca ptr, align 8
  %7 = alloca ptr, align 8
  %8 = alloca i32, align 4
  %9 = alloca ptr, align 8
  %10 = alloca i32, align 4
  %11 = alloca ptr, align 8
  store ptr %0, ptr %6, align 8
  store ptr %1, ptr %7, align 8
  store i32 %2, ptr %8, align 4
  store ptr %3, ptr %9, align 8
  store i32 %4, ptr %10, align 4
  %12 = load i32, ptr %10, align 4
  %13 = icmp ne i32 %12, 4
  br i1 %13, label %14, label %24

14:                                               ; preds = %5
  call void @llvm.lifetime.start.p0(i64 8, ptr %11) #7
  %15 = load ptr, ptr %9, align 8
  %16 = load i32, ptr @hf_ldp_tlv_inv_length, align 4
  %17 = load ptr, ptr %6, align 8
  %18 = load i32, ptr %8, align 4
  %19 = load i32, ptr %10, align 4
  %20 = call ptr @proto_tree_add_item(ptr noundef %15, i32 noundef %16, ptr noundef %17, i32 noundef %18, i32 noundef %19, i32 noundef 0)
  store ptr %20, ptr %11, align 8
  %21 = load ptr, ptr %7, align 8
  %22 = load ptr, ptr %11, align 8
  %23 = call ptr @expert_add_info(ptr noundef %21, ptr noundef %22, ptr noundef @ei_ldp_inv_length)
  call void @llvm.lifetime.end.p0(i64 8, ptr %11) #7
  br label %30

24:                                               ; preds = %5
  %25 = load ptr, ptr %9, align 8
  %26 = load i32, ptr @hf_ldp_tlv_upstr_lbl_req_resvbit, align 4
  %27 = load ptr, ptr %6, align 8
  %28 = load i32, ptr %8, align 4
  %29 = call ptr @proto_tree_add_item(ptr noundef %25, i32 noundef %26, ptr noundef %27, i32 noundef %28, i32 noundef 4, i32 noundef 0)
  br label %30

30:                                               ; preds = %24, %14
  ret void
}